target datalayout = "e-m:e-p270:32:32-p271:32:32-p272:64:64-i64:64-i128:128-f80:128-n8:16:32:64-S128"
target triple = "x86_64-pc-linux-gnu"

%"class.pxrInternal_v0_24__pxrReserved__::GfVec2d" = type { [2 x double] }
%"class.pxrInternal_v0_24__pxrReserved__::GfMatrix4d" = type { %"class.pxrInternal_v0_24__pxrReserved__::GfMatrixData" }
%"class.pxrInternal_v0_24__pxrReserved__::GfMatrixData" = type { [16 x double] }

; Function Attrs: mustprogress nounwind uwtable
define linkonce_odr noundef ptr @_ZN32pxrInternal_v0_24__pxrReserved__12GfMatrixDataIdLi4ELi4EEixEi(ptr noundef nonnull align 8 dereferenceable(128) %0, i32 noundef %1) #2 comdat align 2 {
  %3 = alloca ptr, align 8
  %4 = alloca i32, align 4
  store ptr %0, ptr %3, align 8
  store i32 %1, ptr %4, align 4
  %5 = load ptr, ptr %3, align 8
  %6 = getelementptr inbounds nuw %"class.pxrInternal_v0_24__pxrReserved__::GfMatrixData", ptr %5, i32 0, i32 0
  %7 = getelementptr inbounds [16 x double], ptr %6, i64 0, i64 0
  %8 = load i32, ptr %4, align 4
  %9 = mul nsw i32 %8, 4
  %10 = sext i32 %9 to i64
  %11 = getelementptr inbounds double, ptr %7, i64 %10
  ret ptr %11
}

; Function Attrs: mustprogress nounwind uwtable
define internal noundef double @_ZN32pxrInternal_v0_24__pxrReserved__L11_SafeDivOneEdd(double noundef %0, double noundef %1) #2 {
  %3 = alloca double, align 8
  %4 = alloca double, align 8
  %5 = alloca double, align 8
  store double %0, ptr %4, align 8
  store double %1, ptr %5, align 8
  %6 = load double, ptr %5, align 8
  %7 = fcmp une double %6, 0.000000e+00
  br i1 %7, label %8, label %12

8:                                                ; preds = %2
  %9 = load double, ptr %4, align 8
  %10 = load double, ptr %5, align 8
  %11 = fdiv double %9, %10
  store double %11, ptr %3, align 8
  br label %13

12:                                               ; preds = %2
  store double 1.000000e+00, ptr %3, align 8
  br label %13

13:                                               ; preds = %12, %8
  %14 = load double, ptr %3, align 8
  ret double %14
}

; Function Attrs: mustprogress nounwind uwtable
define linkonce_odr noundef ptr @_ZNK32pxrInternal_v0_24__pxrReserved__12GfMatrixDataIdLi4ELi4EEixEi(ptr noundef nonnull align 8 dereferenceable(128) %0, i32 noundef %1) #2 comdat align 2 {
  %3 = alloca ptr, align 8
  %4 = alloca i32, align 4
  store ptr %0, ptr %3, align 8
  store i32 %1, ptr %4, align 4
  %5 = load ptr, ptr %3, align 8
  %6 = getelementptr inbounds nuw %"class.pxrInternal_v0_24__pxrReserved__::GfMatrixData", ptr %5, i32 0, i32 0
  %7 = getelementptr inbounds [16 x double], ptr %6, i64 0, i64 0
  %8 = load i32, ptr %4, align 4
  %9 = mul nsw i32 %8, 4
  %10 = sext i32 %9 to i64
  %11 = getelementptr inbounds double, ptr %7, i64 %10
  ret ptr %11
}

; Function Attrs: mustprogress nounwind uwtable
define internal noundef double @_ZN32pxrInternal_v0_24__pxrReserved__L8_SafeDivEdd(double noundef %0, double noundef %1) #2 {
  %3 = alloca double, align 8
  %4 = alloca double, align 8
  %5 = alloca double, align 8
  store double %0, ptr %4, align 8
  store double %1, ptr %5, align 8
  %6 = load double, ptr %5, align 8
  %7 = fcmp une double %6, 0.000000e+00
  br i1 %7, label %8, label %12

8:                                                ; preds = %2
  %9 = load double, ptr %4, align 8
  %10 = load double, ptr %5, align 8
  %11 = fdiv double %9, %10
  store double %11, ptr %3, align 8
  br label %14

12:                                               ; preds = %2
  %13 = load double, ptr %4, align 8
  store double %13, ptr %3, align 8
  br label %14

14:                                               ; preds = %12, %8
  %15 = load double, ptr %3, align 8
  ret double %15
}

; Function Attrs: mustprogress uwtable
define linkonce_odr noundef ptr @_ZN32pxrInternal_v0_24__pxrReserved__10GfMatrix4dixEi(ptr noundef nonnull align 8 dereferenceable(128) %0, i32 noundef %1) #0 comdat align 2 {
  %3 = alloca ptr, align 8
  %4 = alloca i32, align 4
  store ptr %0, ptr %3, align 8
  store i32 %1, ptr %4, align 4
  %5 = load ptr, ptr %3, align 8
  %6 = getelementptr inbounds nuw %"class.pxrInternal_v0_24__pxrReserved__::GfMatrix4d", ptr %5, i32 0, i32 0
  %7 = load i32, ptr %4, align 4
  %8 = call noundef ptr @_ZN32pxrInternal_v0_24__pxrReserved__12GfMatrixDataIdLi4ELi4EEixEi(ptr noundef nonnull align 8 dereferenceable(128) %6, i32 noundef %7)
  ret ptr %8
}

; Function Attrs: mustprogress nounwind uwtable
define linkonce_odr noundef nonnull align 8 dereferenceable(8) ptr @_ZNK32pxrInternal_v0_24__pxrReserved__7GfVec2dixEm(ptr noundef nonnull align 8 dereferenceable(16) %0, i64 noundef %1) #2 comdat align 2 {
  %3 = alloca ptr, align 8
  %4 = alloca i64, align 8
  store ptr %0, ptr %3, align 8
  store i64 %1, ptr %4, align 8
  %5 = load ptr, ptr %3, align 8
  %6 = getelementptr inbounds nuw %"class.pxrInternal_v0_24__pxrReserved__::GfVec2d", ptr %5, i32 0, i32 0
  %7 = load i64, ptr %4, align 8
  %8 = getelementptr inbounds [2 x double], ptr %6, i64 0, i64 %7
  ret ptr %8
}

; Function Attrs: mustprogress nounwind uwtable
define internal noundef double @_ZN32pxrInternal_v0_24__pxrReserved__L5_SignEd(double noundef %0) #2 {
  %2 = alloca double, align 8
  %3 = alloca double, align 8
  store double %0, ptr %3, align 8
  %4 = load double, ptr %3, align 8
  %5 = fcmp olt double %4, 0.000000e+00
  br i1 %5, label %6, label %7

6:                                                ; preds = %1
  store double -1.000000e+00, ptr %2, align 8
  br label %8

7:                                                ; preds = %1
  store double 1.000000e+00, ptr %2, align 8
  br label %8

8:                                                ; preds = %7, %6
  %9 = load double, ptr %2, align 8
  ret double %9
}

; Function Attrs: mustprogress uwtable
define internal noundef i32 @_ZN32pxrInternal_v0_24__pxrReserved__L27_ResolveConformWindowPolicyERKNS_7GfVec2dENS_29CameraUtilConformWindowPolicyEd(ptr noundef nonnull align 8 dereferenceable(16) %0, i32 noundef %1, double noundef %2) #0 {
  %4 = alloca i32, align 4
  %5 = alloca ptr, align 8
  %6 = alloca i32, align 4
  %7 = alloca double, align 8
  %8 = alloca double, align 8
  store ptr %0, ptr %5, align 8
  store i32 %1, ptr %6, align 4
  store double %2, ptr %7, align 8
  %9 = load i32, ptr %6, align 4
  %10 = icmp eq i32 %9, 0
  br i1 %10, label %14, label %11

11:                                               ; preds = %3
  %12 = load i32, ptr %6, align 4
  %13 = icmp eq i32 %12, 1
  br i1 %13, label %14, label %16

14:                                               ; preds = %11, %3
  %15 = load i32, ptr %6, align 4
  store i32 %15, ptr %4, align 4
  br label %35

16:                                               ; preds = %11
  %17 = load ptr, ptr %5, align 8
  %18 = call noundef nonnull align 8 dereferenceable(8) ptr @_ZNK32pxrInternal_v0_24__pxrReserved__7GfVec2dixEm(ptr noundef nonnull align 8 dereferenceable(16) %17, i64 noundef 0)
  %19 = load double, ptr %18, align 8
  %20 = load ptr, ptr %5, align 8
  %21 = call noundef nonnull align 8 dereferenceable(8) ptr @_ZNK32pxrInternal_v0_24__pxrReserved__7GfVec2dixEm(ptr noundef nonnull align 8 dereferenceable(16) %20, i64 noundef 1)
  %22 = load double, ptr %21, align 8
  %23 = call noundef double @_ZN32pxrInternal_v0_24__pxrReserved__L11_SafeDivOneEdd(double noundef %19, double noundef %22)
  store double %23, ptr %8, align 8
  %24 = load i32, ptr %6, align 4
  %25 = icmp eq i32 %24, 2
  %26 = zext i1 %25 to i32
  %27 = load double, ptr %8, align 8
  %28 = load double, ptr %7, align 8
  %29 = fcmp ogt double %27, %28
  %30 = zext i1 %29 to i32
  %31 = xor i32 %26, %30
  %32 = icmp ne i32 %31, 0
  br i1 %32, label %33, label %34

33:                                               ; preds = %16
  store i32 0, ptr %4, align 4
  br label %35

34:                                               ; preds = %16
  store i32 1, ptr %4, align 4
  br label %35

35:                                               ; preds = %34, %33, %14
  %36 = load i32, ptr %4, align 4
  ret i32 %36
}

; Function Attrs: mustprogress nounwind uwtable
define linkonce_odr void @_ZN32pxrInternal_v0_24__pxrReserved__7GfVec2dC2Edd(ptr noundef nonnull align 8 dereferenceable(16) %0, double noundef %1, double noundef %2) unnamed_addr #2 comdat align 2 {
  %4 = alloca ptr, align 8
  %5 = alloca double, align 8
  %6 = alloca double, align 8
  store ptr %0, ptr %4, align 8
  store double %1, ptr %5, align 8
  store double %2, ptr %6, align 8
  %7 = load ptr, ptr %4, align 8
  %8 = getelementptr inbounds nuw %"class.pxrInternal_v0_24__pxrReserved__::GfVec2d", ptr %7, i32 0, i32 0
  %9 = load double, ptr %5, align 8
  store double %9, ptr %8, align 8
  %10 = getelementptr inbounds double, ptr %8, i64 1
  %11 = load double, ptr %6, align 8
  store double %11, ptr %10, align 8
  ret void
}

; Function Attrs: mustprogress uwtable
define linkonce_odr noundef ptr @_ZNK32pxrInternal_v0_24__pxrReserved__10GfMatrix4dixEi(ptr noundef nonnull align 8 dereferenceable(128) %0, i32 noundef %1) #0 comdat align 2 {
  %3 = alloca ptr, align 8
  %4 = alloca i32, align 4
  store ptr %0, ptr %3, align 8
  store i32 %1, ptr %4, align 4
  %5 = load ptr, ptr %3, align 8
  %6 = getelementptr inbounds nuw %"class.pxrInternal_v0_24__pxrReserved__::GfMatrix4d", ptr %5, i32 0, i32 0
  %7 = load i32, ptr %4, align 4
  %8 = call noundef ptr @_ZNK32pxrInternal_v0_24__pxrReserved__12GfMatrixDataIdLi4ELi4EEixEi(ptr noundef nonnull align 8 dereferenceable(128) %6, i32 noundef %7)
  ret ptr %8
}

; Function Attrs: mustprogress nounwind uwtable
define internal noundef zeroext i1 @_ZN32pxrInternal_v0_24__pxrReserved__L25_DoesNotRequireAdjustmentENS_29CameraUtilConformWindowPolicyE(i32 noundef %0) #2 {
  %2 = alloca i32, align 4
  store i32 %0, ptr %2, align 4
  %3 = load i32, ptr %2, align 4
  %4 = icmp eq i32 %3, 4
  ret i1 %4
}

; Function Attrs: mustprogress uwtable
define void @_ZN32pxrInternal_v0_24__pxrReserved__25CameraUtilConformedWindowERKNS_10GfMatrix4dENS_29CameraUtilConformWindowPolicyEd(ptr dead_on_unwind noalias writable sret(%"class.pxrInternal_v0_24__pxrReserved__::GfMatrix4d") align 8 %0, ptr noundef nonnull align 8 dereferenceable(128) %1, i32 noundef %2, double noundef %3) #0 {
  %5 = alloca ptr, align 8
  %6 = alloca i32, align 4
  %7 = alloca double, align 8
  %8 = alloca %"class.pxrInternal_v0_24__pxrReserved__::GfVec2d", align 8
  %9 = alloca i32, align 4
  %10 = alloca double, align 8
  %11 = alloca double, align 8
  store ptr %1, ptr %5, align 8
  store i32 %2, ptr %6, align 4
  store double %3, ptr %7, align 8
  %12 = load i32, ptr %6, align 4
  %13 = call noundef zeroext i1 @_ZN32pxrInternal_v0_24__pxrReserved__L25_DoesNotRequireAdjustmentENS_29CameraUtilConformWindowPolicyE(i32 noundef %12)
  br i1 %13, label %14, label %16

14:                                               ; preds = %4
  %15 = load ptr, ptr %5, align 8
  call void @llvm.memcpy.p0.p0.i64(ptr align 8 %0, ptr align 8 %15, i64 128, i1 false)
  br label %96

16:                                               ; preds = %4
  %17 = load ptr, ptr %5, align 8
  call void @llvm.memcpy.p0.p0.i64(ptr align 8 %0, ptr align 8 %17, i64 128, i1 false)
  %18 = load ptr, ptr %5, align 8
  %19 = call noundef ptr @_ZNK32pxrInternal_v0_24__pxrReserved__10GfMatrix4dixEi(ptr noundef nonnull align 8 dereferenceable(128) %18, i32 noundef 1)
  %20 = getelementptr inbounds double, ptr %19, i64 1
  %21 = load double, ptr %20, align 8
  %22 = call double @llvm.fabs.f64(double %21)
  %23 = load ptr, ptr %5, align 8
  %24 = call noundef ptr @_ZNK32pxrInternal_v0_24__pxrReserved__10GfMatrix4dixEi(ptr noundef nonnull align 8 dereferenceable(128) %23, i32 noundef 0)
  %25 = getelementptr inbounds double, ptr %24, i64 0
  %26 = load double, ptr %25, align 8
  %27 = call double @llvm.fabs.f64(double %26)
  call void @_ZN32pxrInternal_v0_24__pxrReserved__7GfVec2dC2Edd(ptr noundef nonnull align 8 dereferenceable(16) %8, double noundef %22, double noundef %27)
  %28 = load i32, ptr %6, align 4
  %29 = load double, ptr %7, align 8
  %30 = call noundef i32 @_ZN32pxrInternal_v0_24__pxrReserved__L27_ResolveConformWindowPolicyERKNS_7GfVec2dENS_29CameraUtilConformWindowPolicyEd(ptr noundef nonnull align 8 dereferenceable(16) %8, i32 noundef %28, double noundef %29)
  store i32 %30, ptr %9, align 4
  %31 = load i32, ptr %9, align 4
  %32 = icmp eq i32 %31, 1
  br i1 %32, label %33, label %64

33:                                               ; preds = %16
  %34 = load ptr, ptr %5, align 8
  %35 = call noundef ptr @_ZNK32pxrInternal_v0_24__pxrReserved__10GfMatrix4dixEi(ptr noundef nonnull align 8 dereferenceable(128) %34, i32 noundef 1)
  %36 = getelementptr inbounds double, ptr %35, i64 1
  %37 = load double, ptr %36, align 8
  %38 = call noundef double @_ZN32pxrInternal_v0_24__pxrReserved__L5_SignEd(double noundef %37)
  %39 = call noundef nonnull align 8 dereferenceable(8) ptr @_ZNK32pxrInternal_v0_24__pxrReserved__7GfVec2dixEm(ptr noundef nonnull align 8 dereferenceable(16) %8, i64 noundef 1)
  %40 = load double, ptr %39, align 8
  %41 = fmul double %38, %40
  %42 = load double, ptr %7, align 8
  %43 = fmul double %41, %42
  %44 = call noundef ptr @_ZN32pxrInternal_v0_24__pxrReserved__10GfMatrix4dixEi(ptr noundef nonnull align 8 dereferenceable(128) %0, i32 noundef 1)
  %45 = getelementptr inbounds double, ptr %44, i64 1
  store double %43, ptr %45, align 8
  %46 = call noundef ptr @_ZN32pxrInternal_v0_24__pxrReserved__10GfMatrix4dixEi(ptr noundef nonnull align 8 dereferenceable(128) %0, i32 noundef 1)
  %47 = getelementptr inbounds double, ptr %46, i64 1
  %48 = load double, ptr %47, align 8
  %49 = load ptr, ptr %5, align 8
  %50 = call noundef ptr @_ZNK32pxrInternal_v0_24__pxrReserved__10GfMatrix4dixEi(ptr noundef nonnull align 8 dereferenceable(128) %49, i32 noundef 1)
  %51 = getelementptr inbounds double, ptr %50, i64 1
  %52 = load double, ptr %51, align 8
  %53 = call noundef double @_ZN32pxrInternal_v0_24__pxrReserved__L8_SafeDivEdd(double noundef %48, double noundef %52)
  store double %53, ptr %10, align 8
  %54 = load double, ptr %10, align 8
  %55 = call noundef ptr @_ZN32pxrInternal_v0_24__pxrReserved__10GfMatrix4dixEi(ptr noundef nonnull align 8 dereferenceable(128) %0, i32 noundef 2)
  %56 = getelementptr inbounds double, ptr %55, i64 1
  %57 = load double, ptr %56, align 8
  %58 = fmul double %57, %54
  store double %58, ptr %56, align 8
  %59 = load double, ptr %10, align 8
  %60 = call noundef ptr @_ZN32pxrInternal_v0_24__pxrReserved__10GfMatrix4dixEi(ptr noundef nonnull align 8 dereferenceable(128) %0, i32 noundef 3)
  %61 = getelementptr inbounds double, ptr %60, i64 1
  %62 = load double, ptr %61, align 8
  %63 = fmul double %62, %59
  store double %63, ptr %61, align 8
  br label %95

64:                                               ; preds = %16
  %65 = load ptr, ptr %5, align 8
  %66 = call noundef ptr @_ZNK32pxrInternal_v0_24__pxrReserved__10GfMatrix4dixEi(ptr noundef nonnull align 8 dereferenceable(128) %65, i32 noundef 0)
  %67 = getelementptr inbounds double, ptr %66, i64 0
  %68 = load double, ptr %67, align 8
  %69 = call noundef double @_ZN32pxrInternal_v0_24__pxrReserved__L5_SignEd(double noundef %68)
  %70 = call noundef nonnull align 8 dereferenceable(8) ptr @_ZNK32pxrInternal_v0_24__pxrReserved__7GfVec2dixEm(ptr noundef nonnull align 8 dereferenceable(16) %8, i64 noundef 0)
  %71 = load double, ptr %70, align 8
  %72 = load double, ptr %7, align 8
  %73 = call noundef double @_ZN32pxrInternal_v0_24__pxrReserved__L8_SafeDivEdd(double noundef %71, double noundef %72)
  %74 = fmul double %69, %73
  %75 = call noundef ptr @_ZN32pxrInternal_v0_24__pxrReserved__10GfMatrix4dixEi(ptr noundef nonnull align 8 dereferenceable(128) %0, i32 noundef 0)
  %76 = getelementptr inbounds double, ptr %75, i64 0
  store double %74, ptr %76, align 8
  %77 = call noundef ptr @_ZN32pxrInternal_v0_24__pxrReserved__10GfMatrix4dixEi(ptr noundef nonnull align 8 dereferenceable(128) %0, i32 noundef 0)
  %78 = getelementptr inbounds double, ptr %77, i64 0
  %79 = load double, ptr %78, align 8
  %80 = load ptr, ptr %5, align 8
  %81 = call noundef ptr @_ZNK32pxrInternal_v0_24__pxrReserved__10GfMatrix4dixEi(ptr noundef nonnull align 8 dereferenceable(128) %80, i32 noundef 0)
  %82 = getelementptr inbounds double, ptr %81, i64 0
  %83 = load double, ptr %82, align 8
  %84 = call noundef double @_ZN32pxrInternal_v0_24__pxrReserved__L8_SafeDivEdd(double noundef %79, double noundef %83)
  store double %84, ptr %11, align 8
  %85 = load double, ptr %11, align 8
  %86 = call noundef ptr @_ZN32pxrInternal_v0_24__pxrReserved__10GfMatrix4dixEi(ptr noundef nonnull align 8 dereferenceable(128) %0, i32 noundef 2)
  %87 = getelementptr inbounds double, ptr %86, i64 0
  %88 = load double, ptr %87, align 8
  %89 = fmul double %88, %85
  store double %89, ptr %87, align 8
  %90 = load double, ptr %11, align 8
  %91 = call noundef ptr @_ZN32pxrInternal_v0_24__pxrReserved__10GfMatrix4dixEi(ptr noundef nonnull align 8 dereferenceable(128) %0, i32 noundef 3)
  %92 = getelementptr inbounds double, ptr %91, i64 0
  %93 = load double, ptr %92, align 8
  %94 = fmul double %93, %90
  store double %94, ptr %92, align 8
  br label %95

95:                                               ; preds = %64, %33
  br label %96

96:                                               ; preds = %95, %14
  ret void
}