; Function Attrs: mustprogress nofree norecurse nosync nounwind willreturn memory(argmem: readwrite) uwtable
define void @_ZN32pxrInternal_v0_24__pxrReserved__25CameraUtilConformedWindowERKNS_10GfMatrix4dENS_29CameraUtilConformWindowPolicyEd(ptr dead_on_unwind noalias nocapture writable sret(%"class.pxrInternal_v0_24__pxrReserved__::GfMatrix4d") align 8 %0, ptr nocapture noundef nonnull readonly align 8 dereferenceable(128) %1, i32 noundef %2, double noundef %3) local_unnamed_addr #3 {
  %5 = icmp eq i32 %2, 4
  tail call void @llvm.memcpy.p0.p0.i64(ptr noundef nonnull align 8 dereferenceable(128) %0, ptr noundef nonnull align 8 dereferenceable(128) %1, i64 128, i1 false)
  br i1 %5, label %39, label %6

6:                                                ; preds = %4
  %7 = getelementptr inbounds i8, ptr %1, i64 40
  %8 = load double, ptr %7, align 8
  %9 = tail call double @llvm.fabs.f64(double %8)
  %10 = load double, ptr %1, align 8
  %11 = tail call double @llvm.fabs.f64(double %10)
  %or.cond.i = icmp ult i32 %2, 2
  br i1 %or.cond.i, label %_ZN32pxrInternal_v0_24__pxrReserved__L27_ResolveConformWindowPolicyERKNS_7GfVec2dENS_29CameraUtilConformWindowPolicyEd.exit, label %12

12:                                               ; preds = %6
  %13 = fcmp une double %10, 0.000000e+00
  %14 = fdiv double %9, %11
  %.0.i.i = select i1 %13, double %14, double 1.000000e+00
  %15 = icmp eq i32 %2, 2
  %16 = fcmp ule double %.0.i.i, %3
  %not..i = xor i1 %15, %16
  %..i = zext i1 %not..i to i32
  br label %_ZN32pxrInternal_v0_24__pxrReserved__L27_ResolveConformWindowPolicyERKNS_7GfVec2dENS_29CameraUtilConformWindowPolicyEd.exit

_ZN32pxrInternal_v0_24__pxrReserved__L27_ResolveConformWindowPolicyERKNS_7GfVec2dENS_29CameraUtilConformWindowPolicyEd.exit: ; preds = %6, %12
  %.0.i = phi i32 [ %2, %6 ], [ %..i, %12 ]
  %.not = icmp eq i32 %.0.i, 0
  br i1 %.not, label %25, label %17

17:                                               ; preds = %_ZN32pxrInternal_v0_24__pxrReserved__L27_ResolveConformWindowPolicyERKNS_7GfVec2dENS_29CameraUtilConformWindowPolicyEd.exit
  %18 = fcmp olt double %8, 0.000000e+00
  %19 = fneg double %11
  %20 = select i1 %18, double %19, double %11
  %21 = fmul double %3, %20
  %22 = getelementptr inbounds i8, ptr %0, i64 40
  store double %21, ptr %22, align 8
  %23 = fcmp une double %8, 0.000000e+00
  %24 = fdiv double %21, %8
  %.0.i19 = select i1 %23, double %24, double %21
  br label %.sink.split

25:                                               ; preds = %_ZN32pxrInternal_v0_24__pxrReserved__L27_ResolveConformWindowPolicyERKNS_7GfVec2dENS_29CameraUtilConformWindowPolicyEd.exit
  %26 = fcmp olt double %10, 0.000000e+00
  %27 = fcmp une double %3, 0.000000e+00
  %28 = fdiv double %9, %3
  %.0.i21 = select i1 %27, double %28, double %9
  %29 = fneg double %.0.i21
  %30 = select i1 %26, double %29, double %.0.i21
  store double %30, ptr %0, align 8
  %31 = fcmp une double %10, 0.000000e+00
  %32 = fdiv double %30, %10
  %.0.i22 = select i1 %31, double %32, double %30
  br label %.sink.split

.sink.split:                                      ; preds = %25, %17
  %.sink29 = phi i64 [ 72, %17 ], [ 64, %25 ]
  %.0.i19.sink27 = phi double [ %.0.i19, %17 ], [ %.0.i22, %25 ]
  %.sink25 = phi i64 [ 104, %17 ], [ 96, %25 ]
  %33 = getelementptr inbounds i8, ptr %0, i64 %.sink29
  %34 = load double, ptr %33, align 8
  %35 = fmul double %.0.i19.sink27, %34
  store double %35, ptr %33, align 8
  %36 = getelementptr inbounds i8, ptr %0, i64 %.sink25
  %37 = load double, ptr %36, align 8
  %38 = fmul double %.0.i19.sink27, %37
  store double %38, ptr %36, align 8
  br label %39

39:                                               ; preds = %.sink.split, %4
  ret void
}